#include <math.h>
#include <stdio.h>
#include <stdlib.h>
#include <string.h>
#include <iostream>
using namespace std;


int main()
{
	char a[101];                                //???????????
	cin.get(a,101,'\n');                //?????????
	for(int i=0;i<strlen(a);i++)        //????
	{
		if(a[i]!=' ')                     //????????????????
			cout<<a[i];
		else if(a[i+1]!=' ')             //??????????????????????????????
			cout<<a[i];
		else continue;                     //????????????????????????
	}
	return 0;
}